; Function Attrs: nounwind uwtable
define range(i32 -12, 1) i32 @ff_add_format(ptr noundef captures(address) %0, i64 noundef %1) local_unnamed_addr #3 {
  %3 = load ptr, ptr %0, align 8, !tbaa !23
  %.not = icmp eq ptr %3, null
  br i1 %.not, label %4, label %6

4:                                                ; preds = %2
  %5 = tail call noalias ptr @av_mallocz(i64 noundef 32) #10
  store ptr %5, ptr %0, align 8, !tbaa !23
  %.not14 = icmp eq ptr %5, null
  br i1 %.not14, label %ff_formats_unref.exit.thread, label %6

6:                                                ; preds = %4, %2
  %7 = phi ptr [ %5, %4 ], [ %3, %2 ]
  %8 = getelementptr inbounds nuw i8, ptr %7, i64 8
  %9 = load ptr, ptr %8, align 8, !tbaa !29
  %10 = load i32, ptr %7, align 8, !tbaa !24
  %11 = add i32 %10, 1
  %12 = zext i32 %11 to i64
  %13 = tail call ptr @av_realloc_array(ptr noundef %9, i64 noundef %12, i64 noundef 4) #10
  %.not15 = icmp eq ptr %13, null
  %14 = load ptr, ptr %0, align 8, !tbaa !23
  br i1 %.not15, label %15, label %45

15:                                               ; preds = %6
  %.not.i = icmp eq ptr %14, null
  br i1 %.not.i, label %ff_formats_unref.exit.thread, label %.preheader.i

.preheader.i:                                     ; preds = %15
  %16 = getelementptr inbounds nuw i8, ptr %14, i64 16
  %17 = load i32, ptr %16, align 8, !tbaa !41
  %.not26.i = icmp eq i32 %17, 0
  br i1 %.not26.i, label %.thread.thread.i, label %.lr.ph.i

.lr.ph.i:                                         ; preds = %.preheader.i
  %18 = getelementptr inbounds nuw i8, ptr %14, i64 24
  %19 = load ptr, ptr %18, align 8, !tbaa !42
  %wide.trip.count.i = zext i32 %17 to i64
  br label %20

20:                                               ; preds = %24, %.lr.ph.i
  %indvars.iv.i = phi i64 [ 0, %.lr.ph.i ], [ %indvars.iv.next.i, %24 ]
  %21 = getelementptr inbounds nuw ptr, ptr %19, i64 %indvars.iv.i
  %22 = load ptr, ptr %21, align 8, !tbaa !43
  %23 = icmp eq ptr %22, %0
  br i1 %23, label %.thread.i, label %24

24:                                               ; preds = %20
  %indvars.iv.next.i = add nuw nsw i64 %indvars.iv.i, 1
  %exitcond.not.i = icmp eq i64 %indvars.iv.next.i, %wide.trip.count.i
  br i1 %exitcond.not.i, label %.thread.thread30.i, label %20, !llvm.loop !45

.thread.i:                                        ; preds = %20
  %25 = trunc nuw nsw i64 %indvars.iv.i to i32
  %26 = and i64 %indvars.iv.i, 4294967295
  %27 = getelementptr inbounds nuw ptr, ptr %19, i64 %26
  %28 = getelementptr inbounds nuw i8, ptr %27, i64 8
  %29 = xor i32 %25, -1
  %30 = add i32 %17, %29
  %31 = zext i32 %30 to i64
  %32 = shl nuw nsw i64 %31, 3
  tail call void @llvm.memmove.p0.p0.i64(ptr align 8 %27, ptr nonnull align 8 %28, i64 %32, i1 false)
  %33 = load ptr, ptr %0, align 8, !tbaa !23
  %34 = getelementptr inbounds nuw i8, ptr %33, i64 16
  %35 = load i32, ptr %34, align 8, !tbaa !41
  %36 = add i32 %35, -1
  store i32 %36, ptr %34, align 8, !tbaa !41
  %37 = icmp eq i32 %36, 0
  br i1 %37, label %.thread.thread.i, label %.thread.thread30.i

.thread.thread.i:                                 ; preds = %.thread.i, %.preheader.i
  %38 = phi ptr [ %33, %.thread.i ], [ %14, %.preheader.i ]
  %39 = getelementptr inbounds nuw i8, ptr %38, i64 8
  %40 = load ptr, ptr %39, align 8, !tbaa !29
  tail call void @av_free(ptr noundef %40) #10
  %41 = load ptr, ptr %0, align 8, !tbaa !23
  %42 = getelementptr inbounds nuw i8, ptr %41, i64 24
  %43 = load ptr, ptr %42, align 8, !tbaa !42
  tail call void @av_free(ptr noundef %43) #10
  %44 = load ptr, ptr %0, align 8, !tbaa !23
  tail call void @av_free(ptr noundef %44) #10
  br label %.thread.thread30.i

.thread.thread30.i:                               ; preds = %24, %.thread.thread.i, %.thread.i
  store ptr null, ptr %0, align 8, !tbaa !23
  br label %ff_formats_unref.exit.thread

45:                                               ; preds = %6
  %46 = getelementptr inbounds nuw i8, ptr %14, i64 8
  store ptr %13, ptr %46, align 8, !tbaa !29
  %47 = trunc i64 %1 to i32
  %48 = load i32, ptr %14, align 8, !tbaa !24
  %49 = add i32 %48, 1
  store i32 %49, ptr %14, align 8, !tbaa !24
  %50 = zext i32 %48 to i64
  %51 = getelementptr inbounds nuw i32, ptr %13, i64 %50
  store i32 %47, ptr %51, align 4, !tbaa !19
  br label %ff_formats_unref.exit.thread

ff_formats_unref.exit.thread:                     ; preds = %.thread.thread30.i, %15, %4, %45
  %52 = phi i32 [ 0, %45 ], [ -12, %4 ], [ -12, %15 ], [ -12, %.thread.thread30.i ]
  ret i32 %52
}